target datalayout = "e-m:e-p270:32:32-p271:32:32-p272:64:64-i64:64-i128:128-f80:128-n8:16:32:64-S128"
target triple = "x86_64-pc-linux-gnu"

%struct.hsts = type { %struct.Curl_llist, ptr, i32 }
%struct.Curl_llist = type { ptr, ptr, ptr, i64 }
%struct.stsentry = type { %struct.Curl_llist_node, ptr, i8, i64 }
%struct.Curl_llist_node = type { ptr, ptr, ptr, ptr }

@Curl_cfree = external global ptr, align 8

; Function Attrs: nounwind uwtable
define internal void @hsts_free(ptr noundef %0) #0 {
  %2 = alloca ptr, align 8
  store ptr %0, ptr %2, align 8, !tbaa !14
  %3 = load ptr, ptr @Curl_cfree, align 8, !tbaa !4
  %4 = load ptr, ptr %2, align 8, !tbaa !14
  %5 = getelementptr inbounds nuw %struct.stsentry, ptr %4, i32 0, i32 1
  %6 = load ptr, ptr %5, align 8, !tbaa !24
  call void %3(ptr noundef %6)
  %7 = load ptr, ptr @Curl_cfree, align 8, !tbaa !4
  %8 = load ptr, ptr %2, align 8, !tbaa !14
  call void %7(ptr noundef %8)
  ret void
}

; Function Attrs: nounwind uwtable
define dso_local void @Curl_hsts_cleanup(ptr noundef %0) #0 {
  %2 = alloca ptr, align 8
  %3 = alloca ptr, align 8
  %4 = alloca ptr, align 8
  %5 = alloca ptr, align 8
  %6 = alloca ptr, align 8
  store ptr %0, ptr %2, align 8, !tbaa !10
  call void @llvm.lifetime.start.p0(i64 8, ptr %3) #5
  %7 = load ptr, ptr %2, align 8, !tbaa !10
  %8 = load ptr, ptr %7, align 8, !tbaa !8
  store ptr %8, ptr %3, align 8, !tbaa !8
  %9 = load ptr, ptr %3, align 8, !tbaa !8
  %10 = icmp ne ptr %9, null
  br i1 %10, label %11, label %34

11:                                               ; preds = %1
  call void @llvm.lifetime.start.p0(i64 8, ptr %4) #5
  call void @llvm.lifetime.start.p0(i64 8, ptr %5) #5
  %12 = load ptr, ptr %3, align 8, !tbaa !8
  %13 = getelementptr inbounds nuw %struct.hsts, ptr %12, i32 0, i32 0
  %14 = call ptr @Curl_llist_head(ptr noundef %13)
  store ptr %14, ptr %4, align 8, !tbaa !12
  br label %15

15:                                               ; preds = %24, %11
  %16 = load ptr, ptr %4, align 8, !tbaa !12
  %17 = icmp ne ptr %16, null
  br i1 %17, label %18, label %26

18:                                               ; preds = %15
  call void @llvm.lifetime.start.p0(i64 8, ptr %6) #5
  %19 = load ptr, ptr %4, align 8, !tbaa !12
  %20 = call ptr @Curl_node_elem(ptr noundef %19)
  store ptr %20, ptr %6, align 8, !tbaa !14
  %21 = load ptr, ptr %4, align 8, !tbaa !12
  %22 = call ptr @Curl_node_next(ptr noundef %21)
  store ptr %22, ptr %5, align 8, !tbaa !12
  %23 = load ptr, ptr %6, align 8, !tbaa !14
  call void @hsts_free(ptr noundef %23)
  call void @llvm.lifetime.end.p0(i64 8, ptr %6) #5
  br label %24

24:                                               ; preds = %18
  %25 = load ptr, ptr %5, align 8, !tbaa !12
  store ptr %25, ptr %4, align 8, !tbaa !12
  br label %15, !llvm.loop !16

26:                                               ; preds = %15
  %27 = load ptr, ptr @Curl_cfree, align 8, !tbaa !4
  %28 = load ptr, ptr %3, align 8, !tbaa !8
  %29 = getelementptr inbounds nuw %struct.hsts, ptr %28, i32 0, i32 1
  %30 = load ptr, ptr %29, align 8, !tbaa !18
  call void %27(ptr noundef %30)
  %31 = load ptr, ptr @Curl_cfree, align 8, !tbaa !4
  %32 = load ptr, ptr %3, align 8, !tbaa !8
  call void %31(ptr noundef %32)
  %33 = load ptr, ptr %2, align 8, !tbaa !10
  store ptr null, ptr %33, align 8, !tbaa !8
  call void @llvm.lifetime.end.p0(i64 8, ptr %5) #5
  call void @llvm.lifetime.end.p0(i64 8, ptr %4) #5
  br label %34

34:                                               ; preds = %26, %1
  call void @llvm.lifetime.end.p0(i64 8, ptr %3) #5
  ret void
}