; Function Attrs: nounwind uwtable
define dso_local void @Curl_hsts_cleanup(ptr noundef captures(none) %0) local_unnamed_addr #0 {
  %2 = load ptr, ptr %0, align 8, !tbaa !8
  %.not = icmp eq ptr %2, null
  br i1 %.not, label %15, label %3

3:                                                ; preds = %1
  %4 = tail call ptr @Curl_llist_head(ptr noundef nonnull %2) #9
  %.not1213 = icmp eq ptr %4, null
  br i1 %.not1213, label %._crit_edge, label %.lr.ph

.lr.ph:                                           ; preds = %3, %.lr.ph
  %.014 = phi ptr [ %6, %.lr.ph ], [ %4, %3 ]
  %5 = tail call ptr @Curl_node_elem(ptr noundef nonnull %.014) #9
  %6 = tail call ptr @Curl_node_next(ptr noundef nonnull %.014) #9
  %7 = load ptr, ptr @Curl_cfree, align 8, !tbaa !4
  %8 = getelementptr inbounds nuw i8, ptr %5, i64 32
  %9 = load ptr, ptr %8, align 8, !tbaa !10
  tail call void %7(ptr noundef %9) #9
  %10 = load ptr, ptr @Curl_cfree, align 8, !tbaa !4
  tail call void %10(ptr noundef %5) #9
  %.not12 = icmp eq ptr %6, null
  br i1 %.not12, label %._crit_edge, label %.lr.ph, !llvm.loop !18

._crit_edge:                                      ; preds = %.lr.ph, %3
  %11 = load ptr, ptr @Curl_cfree, align 8, !tbaa !4
  %12 = getelementptr inbounds nuw i8, ptr %2, i64 32
  %13 = load ptr, ptr %12, align 8, !tbaa !20
  tail call void %11(ptr noundef %13) #9
  %14 = load ptr, ptr @Curl_cfree, align 8, !tbaa !4
  tail call void %14(ptr noundef nonnull %2) #9
  store ptr null, ptr %0, align 8, !tbaa !8
  br label %15

15:                                               ; preds = %._crit_edge, %1
  ret void
}